target datalayout = "e-m:e-p270:32:32-p271:32:32-p272:64:64-i64:64-i128:128-f80:128-n8:16:32:64-S128"
target triple = "x86_64-pc-linux-gnu"

%"class.icu_77::UObject" = type { ptr }
%"class.icu_77::DateFormatSymbols" = type { %"class.icu_77::UObject", ptr, i32, ptr, i32, ptr, i32, ptr, i32, ptr, i32, ptr, i32, ptr, i32, ptr, i32, ptr, i32, ptr, i32, ptr, i32, ptr, i32, ptr, i32, ptr, i32, ptr, i32, ptr, i32, ptr, i32, ptr, i32, ptr, i32, %"class.icu_77::UnicodeString", ptr, i32, ptr, i32, ptr, i32, ptr, i32, ptr, i32, ptr, i32, ptr, i32, ptr, i32, ptr, i32, ptr, ptr, i32, i32, %"class.icu_77::Locale", %"class.icu_77::UnicodeString", [14 x [2 x i8]], ptr, i32, ptr, i32, ptr, i32, ptr, i32, ptr, i32, ptr, i32, ptr, ptr }
%"class.icu_77::Locale" = type <{ %"class.icu_77::UObject", [12 x i8], [6 x i8], [4 x i8], [2 x i8], i32, [4 x i8], ptr, [157 x i8], [3 x i8], ptr, i8, [7 x i8] }>
%"class.icu_77::UnicodeString" = type { %"class.icu_77::Replaceable", %"union.icu_77::UnicodeString::StackBufferOrFields" }
%"class.icu_77::Replaceable" = type { %"class.icu_77::UObject" }
%"union.icu_77::UnicodeString::StackBufferOrFields" = type { %struct.anon.0, [32 x i8] }
%struct.anon.0 = type { i16, i32, i32, ptr }

; Function Attrs: mustprogress uwtable
define void @_ZN6icu_7717DateFormatSymbols18disposeZoneStringsEv(ptr noundef nonnull align 8 dereferenceable(976) %0) #1 align 2 {
  %2 = alloca ptr, align 8
  %3 = alloca i32, align 4
  %4 = alloca i32, align 4
  store ptr %0, ptr %2, align 8, !tbaa !31
  %5 = load ptr, ptr %2, align 8
  %6 = getelementptr inbounds nuw %"class.icu_77::DateFormatSymbols", ptr %5, i32 0, i32 58
  %7 = load ptr, ptr %6, align 8, !tbaa !110
  %8 = icmp ne ptr %7, null
  br i1 %8, label %9, label %41

9:                                                ; preds = %1
  call void @llvm.lifetime.start.p0(i64 4, ptr %3) #14
  store i32 0, ptr %3, align 4, !tbaa !14
  br label %10

10:                                               ; preds = %35, %9
  %11 = load i32, ptr %3, align 4, !tbaa !14
  %12 = getelementptr inbounds nuw %"class.icu_77::DateFormatSymbols", ptr %5, i32 0, i32 60
  %13 = load i32, ptr %12, align 8, !tbaa !108
  %14 = icmp slt i32 %11, %13
  br i1 %14, label %16, label %15

15:                                               ; preds = %10
  call void @llvm.lifetime.end.p0(i64 4, ptr %3) #14
  br label %38

16:                                               ; preds = %10
  %17 = getelementptr inbounds nuw %"class.icu_77::DateFormatSymbols", ptr %5, i32 0, i32 58
  %18 = load ptr, ptr %17, align 8, !tbaa !110
  %19 = load i32, ptr %3, align 4, !tbaa !14
  %20 = sext i32 %19 to i64
  %21 = getelementptr inbounds ptr, ptr %18, i64 %20
  %22 = load ptr, ptr %21, align 8, !tbaa !50
  %23 = icmp eq ptr %22, null
  br i1 %23, label %34, label %24

24:                                               ; preds = %16
  %25 = getelementptr inbounds i8, ptr %22, i64 -8
  %26 = load i64, ptr %25, align 8
  %27 = getelementptr inbounds %"class.icu_77::UnicodeString", ptr %22, i64 %26
  %28 = icmp eq ptr %22, %27
  br i1 %28, label %33, label %29

29:                                               ; preds = %29, %24
  %30 = phi ptr [ %27, %24 ], [ %31, %29 ]
  %31 = getelementptr inbounds %"class.icu_77::UnicodeString", ptr %30, i64 -1
  call void @_ZN6icu_7713UnicodeStringD1Ev(ptr noundef nonnull align 8 dereferenceable(64) %31) #14
  %32 = icmp eq ptr %31, %22
  br i1 %32, label %33, label %29

33:                                               ; preds = %29, %24
  call void @_ZN6icu_777UMemorydaEPv(ptr noundef %25) #14
  br label %34

34:                                               ; preds = %33, %16
  br label %35

35:                                               ; preds = %34
  %36 = load i32, ptr %3, align 4, !tbaa !14
  %37 = add nsw i32 %36, 1
  store i32 %37, ptr %3, align 4, !tbaa !14
  br label %10, !llvm.loop !143

38:                                               ; preds = %15
  %39 = getelementptr inbounds nuw %"class.icu_77::DateFormatSymbols", ptr %5, i32 0, i32 58
  %40 = load ptr, ptr %39, align 8, !tbaa !110
  call void @uprv_free_77(ptr noundef %40)
  br label %41

41:                                               ; preds = %38, %1
  %42 = getelementptr inbounds nuw %"class.icu_77::DateFormatSymbols", ptr %5, i32 0, i32 59
  %43 = load ptr, ptr %42, align 8, !tbaa !111
  %44 = icmp ne ptr %43, null
  br i1 %44, label %45, label %77

45:                                               ; preds = %41
  call void @llvm.lifetime.start.p0(i64 4, ptr %4) #14
  store i32 0, ptr %4, align 4, !tbaa !14
  br label %46

46:                                               ; preds = %71, %45
  %47 = load i32, ptr %4, align 4, !tbaa !14
  %48 = getelementptr inbounds nuw %"class.icu_77::DateFormatSymbols", ptr %5, i32 0, i32 60
  %49 = load i32, ptr %48, align 8, !tbaa !108
  %50 = icmp slt i32 %47, %49
  br i1 %50, label %52, label %51

51:                                               ; preds = %46
  call void @llvm.lifetime.end.p0(i64 4, ptr %4) #14
  br label %74

52:                                               ; preds = %46
  %53 = getelementptr inbounds nuw %"class.icu_77::DateFormatSymbols", ptr %5, i32 0, i32 59
  %54 = load ptr, ptr %53, align 8, !tbaa !111
  %55 = load i32, ptr %4, align 4, !tbaa !14
  %56 = sext i32 %55 to i64
  %57 = getelementptr inbounds ptr, ptr %54, i64 %56
  %58 = load ptr, ptr %57, align 8, !tbaa !50
  %59 = icmp eq ptr %58, null
  br i1 %59, label %70, label %60

60:                                               ; preds = %52
  %61 = getelementptr inbounds i8, ptr %58, i64 -8
  %62 = load i64, ptr %61, align 8
  %63 = getelementptr inbounds %"class.icu_77::UnicodeString", ptr %58, i64 %62
  %64 = icmp eq ptr %58, %63
  br i1 %64, label %69, label %65

65:                                               ; preds = %65, %60
  %66 = phi ptr [ %63, %60 ], [ %67, %65 ]
  %67 = getelementptr inbounds %"class.icu_77::UnicodeString", ptr %66, i64 -1
  call void @_ZN6icu_7713UnicodeStringD1Ev(ptr noundef nonnull align 8 dereferenceable(64) %67) #14
  %68 = icmp eq ptr %67, %58
  br i1 %68, label %69, label %65

69:                                               ; preds = %65, %60
  call void @_ZN6icu_777UMemorydaEPv(ptr noundef %61) #14
  br label %70

70:                                               ; preds = %69, %52
  br label %71

71:                                               ; preds = %70
  %72 = load i32, ptr %4, align 4, !tbaa !14
  %73 = add nsw i32 %72, 1
  store i32 %73, ptr %4, align 4, !tbaa !14
  br label %46, !llvm.loop !144

74:                                               ; preds = %51
  %75 = getelementptr inbounds nuw %"class.icu_77::DateFormatSymbols", ptr %5, i32 0, i32 59
  %76 = load ptr, ptr %75, align 8, !tbaa !111
  call void @uprv_free_77(ptr noundef %76)
  br label %77

77:                                               ; preds = %74, %41
  %78 = getelementptr inbounds nuw %"class.icu_77::DateFormatSymbols", ptr %5, i32 0, i32 58
  store ptr null, ptr %78, align 8, !tbaa !110
  %79 = getelementptr inbounds nuw %"class.icu_77::DateFormatSymbols", ptr %5, i32 0, i32 59
  store ptr null, ptr %79, align 8, !tbaa !111
  %80 = getelementptr inbounds nuw %"class.icu_77::DateFormatSymbols", ptr %5, i32 0, i32 60
  store i32 0, ptr %80, align 8, !tbaa !108
  %81 = getelementptr inbounds nuw %"class.icu_77::DateFormatSymbols", ptr %5, i32 0, i32 61
  store i32 0, ptr %81, align 4, !tbaa !109
  ret void
}