; Function Attrs: mustprogress uwtable
define void @_ZN6icu_7717DateFormatSymbols18disposeZoneStringsEv(ptr noundef nonnull align 8 captures(none) dereferenceable(976) %0) local_unnamed_addr #1 align 2 {
  %2 = getelementptr inbounds nuw i8, ptr %0, i64 520
  %3 = load ptr, ptr %2, align 8, !tbaa !147
  %.not = icmp eq ptr %3, null
  br i1 %.not, label %25, label %.preheader15

.preheader15:                                     ; preds = %1
  %4 = getelementptr inbounds nuw i8, ptr %0, i64 536
  %5 = load i32, ptr %4, align 8, !tbaa !149
  %6 = icmp sgt i32 %5, 0
  br i1 %6, label %.lr.ph, label %._crit_edge

._crit_edge.loopexit:                             ; preds = %21
  %.pre24 = load ptr, ptr %2, align 8, !tbaa !147
  br label %._crit_edge

._crit_edge:                                      ; preds = %._crit_edge.loopexit, %.preheader15
  %7 = phi ptr [ %.pre24, %._crit_edge.loopexit ], [ %3, %.preheader15 ]
  tail call void @uprv_free_77(ptr noundef %7)
  br label %25

.lr.ph:                                           ; preds = %.preheader15, %21
  %8 = phi i32 [ %22, %21 ], [ %5, %.preheader15 ]
  %indvars.iv = phi i64 [ %indvars.iv.next, %21 ], [ 0, %.preheader15 ]
  %9 = load ptr, ptr %2, align 8, !tbaa !147
  %10 = getelementptr inbounds nuw ptr, ptr %9, i64 %indvars.iv
  %11 = load ptr, ptr %10, align 8, !tbaa !127
  %12 = icmp eq ptr %11, null
  br i1 %12, label %21, label %13

13:                                               ; preds = %.lr.ph
  %14 = getelementptr inbounds i8, ptr %11, i64 -8
  %15 = load i64, ptr %14, align 8
  %16 = icmp eq i64 %15, 0
  br i1 %16, label %.loopexit14, label %.preheader13.preheader

.preheader13.preheader:                           ; preds = %13
  %17 = getelementptr inbounds %"class.icu_77::UnicodeString", ptr %11, i64 %15
  br label %.preheader13

.preheader13:                                     ; preds = %.preheader13.preheader, %.preheader13
  %18 = phi ptr [ %19, %.preheader13 ], [ %17, %.preheader13.preheader ]
  %19 = getelementptr inbounds i8, ptr %18, i64 -64
  tail call void @_ZN6icu_7713UnicodeStringD1Ev(ptr noundef nonnull align 8 dereferenceable(64) %19) #19
  %20 = icmp eq ptr %19, %11
  br i1 %20, label %.loopexit14, label %.preheader13

.loopexit14:                                      ; preds = %.preheader13, %13
  tail call void @_ZN6icu_777UMemorydaEPv(ptr noundef nonnull %14) #19
  %.pre = load i32, ptr %4, align 8, !tbaa !149
  br label %21

21:                                               ; preds = %.lr.ph, %.loopexit14
  %22 = phi i32 [ %8, %.lr.ph ], [ %.pre, %.loopexit14 ]
  %indvars.iv.next = add nuw nsw i64 %indvars.iv, 1
  %23 = sext i32 %22 to i64
  %24 = icmp slt i64 %indvars.iv.next, %23
  br i1 %24, label %.lr.ph, label %._crit_edge.loopexit, !llvm.loop !154

25:                                               ; preds = %._crit_edge, %1
  %26 = getelementptr inbounds nuw i8, ptr %0, i64 528
  %27 = load ptr, ptr %26, align 8, !tbaa !150
  %.not11 = icmp eq ptr %27, null
  br i1 %.not11, label %49, label %.preheader12

.preheader12:                                     ; preds = %25
  %28 = getelementptr inbounds nuw i8, ptr %0, i64 536
  %29 = load i32, ptr %28, align 8, !tbaa !149
  %30 = icmp sgt i32 %29, 0
  br i1 %30, label %.lr.ph18, label %._crit_edge19

._crit_edge19.loopexit:                           ; preds = %45
  %.pre26 = load ptr, ptr %26, align 8, !tbaa !150
  br label %._crit_edge19

._crit_edge19:                                    ; preds = %._crit_edge19.loopexit, %.preheader12
  %31 = phi ptr [ %.pre26, %._crit_edge19.loopexit ], [ %27, %.preheader12 ]
  tail call void @uprv_free_77(ptr noundef %31)
  br label %49

.lr.ph18:                                         ; preds = %.preheader12, %45
  %32 = phi i32 [ %46, %45 ], [ %29, %.preheader12 ]
  %indvars.iv21 = phi i64 [ %indvars.iv.next22, %45 ], [ 0, %.preheader12 ]
  %33 = load ptr, ptr %26, align 8, !tbaa !150
  %34 = getelementptr inbounds nuw ptr, ptr %33, i64 %indvars.iv21
  %35 = load ptr, ptr %34, align 8, !tbaa !127
  %36 = icmp eq ptr %35, null
  br i1 %36, label %45, label %37

37:                                               ; preds = %.lr.ph18
  %38 = getelementptr inbounds i8, ptr %35, i64 -8
  %39 = load i64, ptr %38, align 8
  %40 = icmp eq i64 %39, 0
  br i1 %40, label %.loopexit, label %.preheader.preheader

.preheader.preheader:                             ; preds = %37
  %41 = getelementptr inbounds %"class.icu_77::UnicodeString", ptr %35, i64 %39
  br label %.preheader

.preheader:                                       ; preds = %.preheader.preheader, %.preheader
  %42 = phi ptr [ %43, %.preheader ], [ %41, %.preheader.preheader ]
  %43 = getelementptr inbounds i8, ptr %42, i64 -64
  tail call void @_ZN6icu_7713UnicodeStringD1Ev(ptr noundef nonnull align 8 dereferenceable(64) %43) #19
  %44 = icmp eq ptr %43, %35
  br i1 %44, label %.loopexit, label %.preheader

.loopexit:                                        ; preds = %.preheader, %37
  tail call void @_ZN6icu_777UMemorydaEPv(ptr noundef nonnull %38) #19
  %.pre25 = load i32, ptr %28, align 8, !tbaa !149
  br label %45

45:                                               ; preds = %.lr.ph18, %.loopexit
  %46 = phi i32 [ %32, %.lr.ph18 ], [ %.pre25, %.loopexit ]
  %indvars.iv.next22 = add nuw nsw i64 %indvars.iv21, 1
  %47 = sext i32 %46 to i64
  %48 = icmp slt i64 %indvars.iv.next22, %47
  br i1 %48, label %.lr.ph18, label %._crit_edge19.loopexit, !llvm.loop !155

49:                                               ; preds = %._crit_edge19, %25
  tail call void @llvm.memset.p0.i64(ptr noundef nonnull align 8 dereferenceable(24) %2, i8 0, i64 24, i1 false)
  ret void
}